target datalayout = "e-m:e-p270:32:32-p271:32:32-p272:64:64-i64:64-i128:128-f80:128-n8:16:32:64-S128"
target triple = "x86_64-pc-linux-gnu"

%struct._capture_file = type { ptr, i32, ptr, ptr, i8, i8, i8, i64, i16, i32, i32, i32, ptr, i32, i64, i32, i32, i32, i32, i8, i32, %struct.nstime_t, i32, ptr, ptr, ptr, i8, i8, i32, ptr, i8, i8, i8, i8, i8, i32, i32, i8, ptr, i32, i32, i8, %struct.packet_provider_data, i32, i32, %struct.epan_column_info, ptr, ptr, ptr, %struct.wtap_rec, %struct.Buffer, ptr, i64, i32 }
%struct.nstime_t = type { i64, i32 }
%struct.packet_provider_data = type { ptr, ptr, ptr, ptr, ptr, ptr }
%struct.epan_column_info = type { ptr, i32, ptr, ptr, ptr, %struct.col_expr_t, i8, ptr }
%struct.col_expr_t = type { ptr, ptr }
%struct.wtap_rec = type { i32, i32, i32, %struct.nstime_t, i32, %struct.nstime_t, i8, %union.anon, ptr, i8, %struct.Buffer, %struct.Buffer }
%union.anon = type { %struct.wtap_packet_header }
%struct.wtap_packet_header = type { i32, i32, i32, i32, %union.wtap_pseudo_header }
%union.wtap_pseudo_header = type { %struct.erf_mc_phdr }
%struct.erf_mc_phdr = type { %struct.erf_phdr, [16 x %struct.erf_ehdr], %union.anon.1 }
%struct.erf_phdr = type { i64, i8, i8, i16, i16, i16 }
%struct.erf_ehdr = type { i64 }
%union.anon.1 = type { i32 }
%struct.Buffer = type { ptr, i64, i64, i64 }
%struct._frame_data = type <{ i32, i32, i32, i32, i32, [4 x i8], i64, ptr, ptr, ptr, i8, i16, [5 x i8], %struct.nstime_t, %struct.nstime_t, i32, i32 }>

; Function Attrs: inlinehint nounwind null_pointer_is_valid sspstrong uwtable
define internal ptr @ws_buffer_start_ptr(ptr noundef %0) #17 {
  %2 = alloca ptr, align 8
  store ptr %0, ptr %2, align 8
  %3 = load ptr, ptr %2, align 8
  %4 = getelementptr inbounds nuw %struct.Buffer, ptr %3, i32 0, i32 0
  %5 = load ptr, ptr %4, align 8
  %6 = load ptr, ptr %2, align 8
  %7 = getelementptr inbounds nuw %struct.Buffer, ptr %6, i32 0, i32 2
  %8 = load i64, ptr %7, align 8
  %9 = getelementptr i8, ptr %5, i64 %8
  ret ptr %9
}

; Function Attrs: null_pointer_is_valid sspstrong uwtable
define hidden zeroext i1 @cf_read_record(ptr noundef %0, ptr noundef %1, ptr noundef %2) #1 {
  %4 = alloca i1, align 1
  %5 = alloca ptr, align 8
  %6 = alloca ptr, align 8
  %7 = alloca ptr, align 8
  %8 = alloca i32, align 4
  %9 = alloca ptr, align 8
  %10 = alloca i32, align 4
  store ptr %0, ptr %5, align 8
  store ptr %1, ptr %6, align 8
  store ptr %2, ptr %7, align 8
  call void @llvm.lifetime.start.p0(i64 4, ptr %8) #19
  call void @llvm.lifetime.start.p0(i64 8, ptr %9) #19
  %11 = load ptr, ptr %5, align 8
  %12 = getelementptr inbounds nuw %struct._capture_file, ptr %11, i32 0, i32 42
  %13 = getelementptr inbounds nuw %struct.packet_provider_data, ptr %12, i32 0, i32 0
  %14 = load ptr, ptr %13, align 8
  %15 = load ptr, ptr %6, align 8
  %16 = getelementptr inbounds nuw %struct._frame_data, ptr %15, i32 0, i32 6
  %17 = load i64, ptr %16, align 8
  %18 = load ptr, ptr %7, align 8
  %19 = call zeroext i1 @wtap_seek_read(ptr noundef %14, i64 noundef %17, ptr noundef %18, ptr noundef %8, ptr noundef %9)
  br i1 %19, label %26, label %20

20:                                               ; preds = %3
  %21 = load ptr, ptr %5, align 8
  %22 = getelementptr inbounds nuw %struct._capture_file, ptr %21, i32 0, i32 2
  %23 = load ptr, ptr %22, align 8
  %24 = load i32, ptr %8, align 4
  %25 = load ptr, ptr %9, align 8
  call void @report_cfile_read_failure(ptr noundef %23, i32 noundef %24, ptr noundef %25)
  store i1 false, ptr %4, align 1
  store i32 1, ptr %10, align 4
  br label %27

26:                                               ; preds = %3
  store i1 true, ptr %4, align 1
  store i32 1, ptr %10, align 4
  br label %27

27:                                               ; preds = %26, %20
  call void @llvm.lifetime.end.p0(i64 8, ptr %9) #19
  call void @llvm.lifetime.end.p0(i64 4, ptr %8) #19
  %28 = load i1, ptr %4, align 1
  ret i1 %28
}

; Function Attrs: null_pointer_is_valid sspstrong uwtable
define internal i32 @match_regex_reverse(ptr noundef %0, ptr noundef %1, ptr noundef %2, ptr noundef %3) #1 {
  %5 = alloca i32, align 4
  %6 = alloca ptr, align 8
  %7 = alloca ptr, align 8
  %8 = alloca ptr, align 8
  %9 = alloca ptr, align 8
  %10 = alloca i32, align 4
  %11 = alloca [2 x i64], align 16
  %12 = alloca i32, align 4
  %13 = alloca i64, align 8
  store ptr %0, ptr %6, align 8
  store ptr %1, ptr %7, align 8
  store ptr %2, ptr %8, align 8
  store ptr %3, ptr %9, align 8
  call void @llvm.lifetime.start.p0(i64 4, ptr %10) #19
  store i32 0, ptr %10, align 4
  call void @llvm.lifetime.start.p0(i64 16, ptr %11) #19
  call void @llvm.memset.p0.i64(ptr align 16 %11, i8 0, i64 16, i1 false)
  %14 = load ptr, ptr %6, align 8
  %15 = load ptr, ptr %7, align 8
  %16 = load ptr, ptr %8, align 8
  %17 = call zeroext i1 @cf_read_record(ptr noundef %14, ptr noundef %15, ptr noundef %16)
  br i1 %17, label %19, label %18

18:                                               ; preds = %4
  store i32 2, ptr %5, align 4
  store i32 1, ptr %12, align 4
  br label %73

19:                                               ; preds = %4
  call void @llvm.lifetime.start.p0(i64 8, ptr %13) #19
  %20 = load ptr, ptr %7, align 8
  %21 = getelementptr inbounds nuw %struct._frame_data, ptr %20, i32 0, i32 3
  %22 = load i32, ptr %21, align 4
  %23 = sub i32 %22, 1
  %24 = zext i32 %23 to i64
  store i64 %24, ptr %13, align 8
  %25 = load ptr, ptr %6, align 8
  %26 = getelementptr inbounds nuw %struct._capture_file, ptr %25, i32 0, i32 35
  %27 = load i32, ptr %26, align 8
  %28 = icmp ne i32 %27, 0
  br i1 %28, label %29, label %35

29:                                               ; preds = %19
  %30 = load ptr, ptr %6, align 8
  %31 = getelementptr inbounds nuw %struct._capture_file, ptr %30, i32 0, i32 35
  %32 = load i32, ptr %31, align 8
  %33 = sub i32 %32, 1
  %34 = zext i32 %33 to i64
  store i64 %34, ptr %13, align 8
  br label %35

35:                                               ; preds = %29, %19
  br label %36

36:                                               ; preds = %68, %35
  %37 = load i64, ptr %13, align 8
  %38 = icmp ugt i64 %37, 0
  br i1 %38, label %39, label %71

39:                                               ; preds = %36
  %40 = load ptr, ptr %6, align 8
  %41 = getelementptr inbounds nuw %struct._capture_file, ptr %40, i32 0, i32 38
  %42 = load ptr, ptr %41, align 8
  %43 = load ptr, ptr %8, align 8
  %44 = getelementptr inbounds nuw %struct.wtap_rec, ptr %43, i32 0, i32 11
  %45 = call ptr @ws_buffer_start_ptr(ptr noundef %44)
  %46 = load ptr, ptr %7, align 8
  %47 = getelementptr inbounds nuw %struct._frame_data, ptr %46, i32 0, i32 3
  %48 = load i32, ptr %47, align 4
  %49 = zext i32 %48 to i64
  %50 = load i64, ptr %13, align 8
  %51 = getelementptr inbounds [2 x i64], ptr %11, i64 0, i64 0
  %52 = call zeroext i1 @ws_regex_matches_pos(ptr noundef %42, ptr noundef %45, i64 noundef %49, i64 noundef %50, ptr noundef %51)
  br i1 %52, label %53, label %67

53:                                               ; preds = %39
  %54 = getelementptr [2 x i64], ptr %11, i64 0, i64 0
  %55 = load i64, ptr %54, align 16
  %56 = trunc i64 %55 to i32
  %57 = load ptr, ptr %6, align 8
  %58 = getelementptr inbounds nuw %struct._capture_file, ptr %57, i32 0, i32 35
  store i32 %56, ptr %58, align 8
  %59 = getelementptr [2 x i64], ptr %11, i64 0, i64 1
  %60 = load i64, ptr %59, align 8
  %61 = getelementptr [2 x i64], ptr %11, i64 0, i64 0
  %62 = load i64, ptr %61, align 16
  %63 = sub i64 %60, %62
  %64 = trunc i64 %63 to i32
  %65 = load ptr, ptr %6, align 8
  %66 = getelementptr inbounds nuw %struct._capture_file, ptr %65, i32 0, i32 36
  store i32 %64, ptr %66, align 4
  store i32 1, ptr %10, align 4
  br label %71

67:                                               ; preds = %39
  br label %68

68:                                               ; preds = %67
  %69 = load i64, ptr %13, align 8
  %70 = add i64 %69, -1
  store i64 %70, ptr %13, align 8
  br label %36, !llvm.loop !26

71:                                               ; preds = %53, %36
  %72 = load i32, ptr %10, align 4
  store i32 %72, ptr %5, align 4
  store i32 1, ptr %12, align 4
  call void @llvm.lifetime.end.p0(i64 8, ptr %13) #19
  br label %73

73:                                               ; preds = %71, %18
  call void @llvm.lifetime.end.p0(i64 16, ptr %11) #19
  call void @llvm.lifetime.end.p0(i64 4, ptr %10) #19
  %74 = load i32, ptr %5, align 4
  ret i32 %74
}