; Function Attrs: null_pointer_is_valid sspstrong uwtable
define internal range(i32 0, 3) i32 @match_regex_reverse(ptr noundef captures(none) %0, ptr noundef readonly captures(none) %1, ptr noundef %2, ptr readnone captures(none) %3) #1 {
  %5 = alloca i32, align 4
  %6 = alloca ptr, align 8
  %7 = alloca [2 x i64], align 16
  call void @llvm.lifetime.start.p0(i64 16, ptr nonnull %7) #23
  call void @llvm.memset.p0.i64(ptr noundef nonnull align 16 dereferenceable(16) %7, i8 0, i64 16, i1 false)
  call void @llvm.lifetime.start.p0(i64 4, ptr nonnull %5) #23
  call void @llvm.lifetime.start.p0(i64 8, ptr nonnull %6) #23
  %8 = getelementptr inbounds nuw i8, ptr %0, i64 224
  %9 = load ptr, ptr %8, align 8
  %10 = getelementptr inbounds nuw i8, ptr %1, i64 24
  %11 = load i64, ptr %10, align 8
  %12 = call zeroext i1 @wtap_seek_read(ptr noundef %9, i64 noundef %11, ptr noundef %2, ptr noundef nonnull %5, ptr noundef nonnull %6)
  br i1 %12, label %17, label %cf_read_record.exit

cf_read_record.exit:                              ; preds = %4
  %13 = getelementptr inbounds nuw i8, ptr %0, i64 16
  %14 = load ptr, ptr %13, align 8
  %15 = load i32, ptr %5, align 4
  %16 = load ptr, ptr %6, align 8
  call void @report_cfile_read_failure(ptr noundef %14, i32 noundef %15, ptr noundef %16)
  call void @llvm.lifetime.end.p0(i64 8, ptr nonnull %6) #23
  call void @llvm.lifetime.end.p0(i64 4, ptr nonnull %5) #23
  br label %.loopexit

17:                                               ; preds = %4
  call void @llvm.lifetime.end.p0(i64 8, ptr nonnull %6) #23
  call void @llvm.lifetime.end.p0(i64 4, ptr nonnull %5) #23
  %18 = getelementptr inbounds nuw i8, ptr %1, i64 12
  %19 = load i32, ptr %18, align 4
  %20 = getelementptr inbounds nuw i8, ptr %0, i64 184
  %21 = load i32, ptr %20, align 8
  %.not = icmp eq i32 %21, 0
  %spec.select = select i1 %.not, i32 %19, i32 %21
  %.0.in = add i32 %spec.select, -1
  %.not1820 = icmp eq i32 %.0.in, 0
  br i1 %.not1820, label %.loopexit, label %.lr.ph

.lr.ph:                                           ; preds = %17
  %.0 = zext i32 %.0.in to i64
  %22 = getelementptr inbounds nuw i8, ptr %0, i64 200
  %23 = getelementptr inbounds nuw i8, ptr %2, i64 280
  %24 = getelementptr i8, ptr %2, i64 296
  br label %27

25:                                               ; preds = %27
  %26 = add nsw i64 %.121, -1
  %.not18 = icmp eq i64 %26, 0
  br i1 %.not18, label %.loopexit, label %27, !llvm.loop !27

27:                                               ; preds = %.lr.ph, %25
  %.121 = phi i64 [ %.0, %.lr.ph ], [ %26, %25 ]
  %28 = load ptr, ptr %22, align 8
  %.val = load ptr, ptr %23, align 8
  %.val19 = load i64, ptr %24, align 8
  %29 = getelementptr i8, ptr %.val, i64 %.val19
  %30 = load i32, ptr %18, align 4
  %31 = zext i32 %30 to i64
  %32 = call zeroext i1 @ws_regex_matches_pos(ptr noundef %28, ptr noundef %29, i64 noundef %31, i64 noundef %.121, ptr noundef nonnull %7)
  br i1 %32, label %33, label %25

33:                                               ; preds = %27
  %34 = load i64, ptr %7, align 16
  %35 = trunc i64 %34 to i32
  store i32 %35, ptr %20, align 8
  %36 = getelementptr inbounds nuw i8, ptr %7, i64 8
  %37 = load i64, ptr %36, align 8
  %38 = sub i64 %37, %34
  %39 = trunc i64 %38 to i32
  %40 = getelementptr inbounds nuw i8, ptr %0, i64 188
  store i32 %39, ptr %40, align 4
  br label %.loopexit

.loopexit:                                        ; preds = %25, %17, %cf_read_record.exit, %33
  %.016 = phi i32 [ 2, %cf_read_record.exit ], [ 1, %33 ], [ 0, %17 ], [ 0, %25 ]
  call void @llvm.lifetime.end.p0(i64 16, ptr nonnull %7) #23
  ret i32 %.016
}